target datalayout = "e-m:e-p270:32:32-p271:32:32-p272:64:64-i64:64-i128:128-f80:128-n8:16:32:64-S128"
target triple = "x86_64-pc-linux-gnu"

@.str.9 = private unnamed_addr constant [3 x i8] c"rb\00", align 1

; Function Attrs: nounwind uwtable
define ptr @Scl_LibertyFileContents(ptr noundef %0, i64 noundef %1) #0 {
  %3 = alloca ptr, align 8
  %4 = alloca i64, align 8
  %5 = alloca ptr, align 8
  %6 = alloca ptr, align 8
  %7 = alloca i32, align 4
  store ptr %0, ptr %3, align 8
  store i64 %1, ptr %4, align 8
  %8 = load ptr, ptr %3, align 8
  %9 = call noalias ptr @fopen(ptr noundef %8, ptr noundef @.str.9)
  store ptr %9, ptr %5, align 8
  %10 = load i64, ptr %4, align 8
  %11 = add nsw i64 %10, 1
  %12 = mul i64 1, %11
  %13 = call noalias ptr @malloc(i64 noundef %12) #12
  store ptr %13, ptr %6, align 8
  store i32 0, ptr %7, align 4
  %14 = load ptr, ptr %6, align 8
  %15 = load i64, ptr %4, align 8
  %16 = load ptr, ptr %5, align 8
  %17 = call i64 @fread(ptr noundef %14, i64 noundef %15, i64 noundef 1, ptr noundef %16)
  %18 = trunc i64 %17 to i32
  store i32 %18, ptr %7, align 4
  %19 = load ptr, ptr %5, align 8
  %20 = call i32 @fclose(ptr noundef %19)
  %21 = load ptr, ptr %6, align 8
  %22 = load i64, ptr %4, align 8
  %23 = getelementptr inbounds i8, ptr %21, i64 %22
  store i8 0, ptr %23, align 1
  %24 = load ptr, ptr %6, align 8
  ret ptr %24
}