; Function Attrs: nofree nounwind uwtable
define noalias noundef ptr @Scl_LibertyFileContents(ptr noundef readonly captures(none) %0, i64 noundef %1) local_unnamed_addr #0 {
  %3 = tail call noalias ptr @fopen(ptr noundef %0, ptr noundef nonnull @.str.9)
  %4 = add nsw i64 %1, 1
  %5 = tail call noalias ptr @malloc(i64 noundef %4) #28
  %6 = tail call i64 @fread(ptr noundef %5, i64 noundef %1, i64 noundef 1, ptr noundef %3)
  %7 = tail call i32 @fclose(ptr noundef %3)
  %8 = getelementptr inbounds i8, ptr %5, i64 %1
  store i8 0, ptr %8, align 1
  ret ptr %5
}